target datalayout = "e-m:e-p270:32:32-p271:32:32-p272:64:64-i64:64-i128:128-f80:128-n8:16:32:64-S128"
target triple = "x86_64-pc-linux-gnu"

%struct.location = type { i32, i32 }
%struct.block = type { ptr, ptr }
%struct.inst = type { ptr, ptr, i32, %struct.anon, ptr, %struct.location, ptr, ptr, i32, i32, i32, i32, %struct.block, %struct.block, ptr, i32 }
%struct.anon = type { i16, ptr, %struct.jv, ptr }
%struct.jv = type { i8, i8, i16, i32, %union.anon }
%union.anon = type { ptr }

; Function Attrs: nounwind uwtable
define dso_local i32 @block_has_main(ptr %0, ptr %1) #0 {
  %3 = alloca i32, align 4
  %4 = alloca %struct.block, align 8
  %5 = alloca ptr, align 8
  %6 = alloca i32, align 4
  %7 = getelementptr inbounds nuw { ptr, ptr }, ptr %4, i32 0, i32 0
  store ptr %0, ptr %7, align 8
  %8 = getelementptr inbounds nuw { ptr, ptr }, ptr %4, i32 0, i32 1
  store ptr %1, ptr %8, align 8
  call void @llvm.lifetime.start.p0(i64 8, ptr %5) #7
  %9 = getelementptr inbounds nuw %struct.block, ptr %4, i32 0, i32 0
  %10 = load ptr, ptr %9, align 8, !tbaa !4
  store ptr %10, ptr %5, align 8, !tbaa !13
  br label %11

11:                                               ; preds = %22, %2
  %12 = load ptr, ptr %5, align 8, !tbaa !13
  %13 = icmp ne ptr %12, null
  br i1 %13, label %15, label %14

14:                                               ; preds = %11
  store i32 2, ptr %6, align 4
  br label %26

15:                                               ; preds = %11
  %16 = load ptr, ptr %5, align 8, !tbaa !13
  %17 = getelementptr inbounds nuw %struct.inst, ptr %16, i32 0, i32 2
  %18 = load i32, ptr %17, align 8, !tbaa !33
  %19 = icmp eq i32 %18, 35
  br i1 %19, label %20, label %21

20:                                               ; preds = %15
  store i32 1, ptr %3, align 4
  store i32 1, ptr %6, align 4
  br label %26

21:                                               ; preds = %15
  br label %22

22:                                               ; preds = %21
  %23 = load ptr, ptr %5, align 8, !tbaa !13
  %24 = getelementptr inbounds nuw %struct.inst, ptr %23, i32 0, i32 0
  %25 = load ptr, ptr %24, align 8, !tbaa !28
  store ptr %25, ptr %5, align 8, !tbaa !13
  br label %11, !llvm.loop !70

26:                                               ; preds = %20, %14
  call void @llvm.lifetime.end.p0(i64 8, ptr %5) #7
  %27 = load i32, ptr %6, align 4
  switch i32 %27, label %31 [
    i32 2, label %28
    i32 1, label %29
  ]

28:                                               ; preds = %26
  store i32 0, ptr %3, align 4
  br label %29

29:                                               ; preds = %28, %26
  %30 = load i32, ptr %3, align 4
  ret i32 %30

31:                                               ; preds = %26
  unreachable
}