; Function Attrs: nofree norecurse nosync nounwind memory(read, inaccessiblemem: none) uwtable
define dso_local range(i32 0, 2) i32 @block_has_main(ptr readonly captures(address_is_null) %0, ptr readnone captures(none) %1) local_unnamed_addr #14 {
  %.not6.not = icmp eq ptr %0, null
  br i1 %.not6.not, label %._crit_edge, label %.lr.ph

.lr.ph:                                           ; preds = %2, %6
  %.047 = phi ptr [ %7, %6 ], [ %0, %2 ]
  %3 = getelementptr inbounds nuw i8, ptr %.047, i64 16
  %4 = load i32, ptr %3, align 8, !tbaa !25
  %5 = icmp eq i32 %4, 35
  br i1 %5, label %._crit_edge, label %6

6:                                                ; preds = %.lr.ph
  %7 = load ptr, ptr %.047, align 8, !tbaa !22
  %.not.not = icmp eq ptr %7, null
  br i1 %.not.not, label %._crit_edge, label %.lr.ph, !llvm.loop !59

._crit_edge:                                      ; preds = %6, %.lr.ph, %2
  %.not.lcssa = phi i32 [ 0, %2 ], [ 1, %.lr.ph ], [ 0, %6 ]
  ret i32 %.not.lcssa
}